Certificate:
    Data:
        Version: 3 (0x2)
        Serial Number:
            2c:af:80:6d:b1:e0:8b:9f:49:90:7b:b2:39:4e:b3:c7:88:0e:44:53
        Signature Algorithm: sha512WithRSAEncryption
        Issuer: CN=Canonical Ltd. Kernel Module Signing 2025 Kmod
        Validity
            Not Before: Nov 21 12:32:19 2025 GMT
            Not After : Nov 21 12:32:19 2050 GMT
        Subject: CN=Canonical Ltd. Kernel Module Signing 2025 Kmod
        Subject Public Key Info:
            Public Key Algorithm: rsaEncryption
                Public-Key: (4096 bit)
                Modulus:
                    00:9e:20:bd:0d:2d:bd:af:fe:e2:68:a3:8e:fe:2b:
                    50:21:08:03:3a:32:71:d5:35:ac:d0:0a:07:ae:f4:
                    dc:a2:8d:2f:c6:0d:2a:6b:ac:ef:84:72:d5:df:91:
                    52:cf:76:01:b3:29:e1:ba:9f:5b:9f:f0:92:b7:03:
                    65:80:ca:d0:aa:6d:26:28:07:8b:2c:19:9e:87:e9:
                    5f:58:5c:aa:ad:3c:be:71:3a:2d:d6:79:72:23:7e:
                    bf:f3:39:48:c6:d0:2f:7f:c2:79:0e:35:51:c9:4f:
                    e9:bf:80:06:75:5e:76:30:c0:96:83:4a:79:f3:3a:
                    9e:30:e5:0e:9d:b6:86:c3:7c:6a:eb:4d:4c:5c:0b:
                    e1:a8:48:b2:e4:f4:62:64:55:7b:f0:5b:10:15:07:
                    51:89:e4:98:7e:7b:58:c0:38:dc:03:7e:ba:1a:0e:
                    c2:12:b0:1e:93:f1:dc:7d:8f:85:7d:d0:7f:d6:ef:
                    e6:6c:90:03:d9:85:a5:a1:43:20:af:b1:89:75:d4:
                    e7:af:63:b1:ba:0d:a3:a4:5e:29:a4:5c:f0:bf:9a:
                    c8:7e:c3:da:60:d4:ae:ad:13:3f:cc:4b:64:73:3d:
                    59:3f:8b:91:7f:8c:fe:e6:4b:2f:e3:04:2b:e3:ae:
                    0d:6f:8b:55:b9:e9:1b:67:37:25:9d:43:d3:70:b5:
                    01:e8:d9:de:11:9a:b8:c9:5b:ba:b0:0c:6a:9f:9b:
                    fe:79:e3:a9:27:90:1d:56:95:84:8b:eb:96:a1:47:
                    83:28:3c:d0:ea:81:7e:fe:a2:90:3d:84:02:5e:bc:
                    68:0b:70:69:36:18:32:53:e3:4a:e1:c5:0d:dc:d6:
                    cd:3f:c0:1a:27:28:db:96:0a:ce:01:03:0d:8e:9e:
                    38:e1:04:85:38:ad:f7:1f:10:40:b5:b1:d5:85:bd:
                    e6:62:b1:3c:f0:ac:8f:8a:88:62:46:cc:bf:64:9b:
                    e7:b6:c0:68:3e:96:14:54:6c:76:08:8d:6a:fd:08:
                    4b:8e:0b:0e:ca:84:8a:17:60:fb:12:c7:f2:27:49:
                    9b:b8:ff:a9:3f:70:5f:98:51:be:96:f1:0d:bf:1d:
                    0e:c3:c7:34:5e:b3:35:e7:ff:43:e4:0e:7a:86:08:
                    d6:13:a6:6f:48:4a:d6:f5:61:cb:ba:29:e6:54:ac:
                    c9:c0:32:5e:fe:72:b2:e1:c4:e4:d9:ec:6a:1e:f2:
                    5f:cc:db:44:30:42:79:ca:c8:d1:86:28:3b:3a:50:
                    d0:71:81:5f:ab:fb:f1:2f:65:df:8e:a4:7c:96:5c:
                    46:c3:fc:b0:fd:3d:b1:38:cf:85:15:a6:da:ce:a9:
                    a3:b0:76:6a:4b:8a:4c:25:ce:c2:3d:fc:01:11:24:
                    1d:c7:f9
                Exponent: 65537 (0x10001)
        X509v3 extensions:
            X509v3 Basic Constraints: critical
                CA:FALSE
            X509v3 Key Usage: 
                Digital Signature
            X509v3 Subject Key Identifier: 
                46:27:60:3D:23:57:A2:A3:F8:10:06:37:08:94:C2:21:17:58:93:E9
            X509v3 Authority Key Identifier: 
                46:27:60:3D:23:57:A2:A3:F8:10:06:37:08:94:C2:21:17:58:93:E9
            X509v3 Extended Key Usage: 
                Code Signing, 1.3.6.1.4.1.2312.16.1.2
    Signature Algorithm: sha512WithRSAEncryption
    Signature Value:
        21:a6:29:45:48:fc:42:37:12:b8:71:af:06:9e:2a:63:91:19:
        7b:52:a5:c9:2a:63:66:36:94:3f:2b:ac:f7:01:7e:04:48:92:
        7c:33:66:94:c8:c0:c3:1e:a4:f4:10:d2:4a:67:1a:10:64:15:
        dd:70:86:8c:4d:ef:a9:c2:09:bc:44:9b:83:06:7c:ce:b3:2f:
        09:9f:32:51:dd:f9:e6:87:96:c7:3f:08:e1:8f:ed:4d:b0:39:
        02:9c:c0:86:40:28:56:59:5c:1d:11:af:a8:ad:49:e8:91:a0:
        31:a2:e8:c4:5e:88:c4:31:c3:d4:6f:3f:5a:94:c7:6e:b8:2a:
        74:27:90:12:c6:1f:35:87:32:31:e9:38:14:d9:09:c3:42:e6:
        e7:f7:8f:46:22:a1:c9:12:0c:34:1a:7c:d0:6b:e5:c7:42:49:
        3f:7d:c9:bb:38:65:e3:93:16:1b:ae:48:6c:29:53:ec:1a:a0:
        75:3f:3e:e4:a7:30:59:79:e7:8d:4b:76:06:8d:f5:4b:97:06:
        0a:af:0e:0b:7b:37:8c:9d:86:3d:92:40:cf:2d:87:ca:5c:66:
        01:9b:bd:42:99:5c:4b:39:91:0e:8f:db:d3:2b:57:fe:4a:17:
        a0:10:17:e4:39:f1:a1:28:1b:51:53:9c:cf:95:4e:23:55:e3:
        24:2b:2e:dc:ed:cb:9c:1a:fb:64:f6:05:be:c4:71:70:62:af:
        52:2d:64:9f:4b:f0:87:5d:5d:53:8d:41:2e:6a:81:2a:e2:fb:
        55:89:7d:70:93:eb:59:61:b1:f7:75:64:0e:6c:f7:eb:b9:d4:
        83:08:20:29:9c:03:0b:5b:d5:8f:de:4e:bd:e0:d9:c2:c5:01:
        03:9d:a5:3a:db:2b:f2:32:89:67:0e:ec:32:a4:74:bd:fb:f8:
        0e:b4:cf:cd:5e:49:bb:02:2d:d1:0c:3d:2f:d7:22:e4:89:4c:
        6a:3c:e5:ce:6d:21:68:7e:74:2e:35:5e:3b:9a:44:3b:a5:54:
        9a:3c:be:df:5d:e2:f6:dd:1c:bd:f8:05:99:82:2f:16:4d:6e:
        f6:37:8b:77:3f:81:2f:10:a6:4c:04:67:a4:58:34:0d:5d:6f:
        e4:2a:c4:c2:be:00:f1:8e:8b:85:98:77:48:8a:47:21:2e:ff:
        cc:55:6d:8c:f2:ec:3e:14:75:a5:7d:0c:24:40:b6:54:49:30:
        84:1a:62:b2:19:60:42:3c:a4:3f:bc:fc:21:f6:1d:19:83:cc:
        f8:cb:08:2a:15:49:c8:35:8f:bd:14:c3:22:92:c9:5b:84:88:
        50:01:db:10:08:4b:24:08:00:c4:60:76:be:e8:62:e2:0c:bd:
        9a:28:3c:70:86:9c:dd:94
-----BEGIN CERTIFICATE-----
MIIFgDCCA2igAwIBAgIULK+AbbHgi59JkHuyOU6zx4gORFMwDQYJKoZIhvcNAQEN
BQAwOTE3MDUGA1UEAwwuQ2Fub25pY2FsIEx0ZC4gS2VybmVsIE1vZHVsZSBTaWdu
aW5nIDIwMjUgS21vZDAgFw0yNTExMjExMjMyMTlaGA8yMDUwMTEyMTEyMzIxOVow
OTE3MDUGA1UEAwwuQ2Fub25pY2FsIEx0ZC4gS2VybmVsIE1vZHVsZSBTaWduaW5n
IDIwMjUgS21vZDCCAiIwDQYJKoZIhvcNAQEBBQADggIPADCCAgoCggIBAJ4gvQ0t
va/+4mijjv4rUCEIAzoycdU1rNAKB6703KKNL8YNKmus74Ry1d+RUs92AbMp4bqf
W5/wkrcDZYDK0KptJigHiywZnofpX1hcqq08vnE6LdZ5ciN+v/M5SMbQL3/CeQ41
UclP6b+ABnVedjDAloNKefM6njDlDp22hsN8autNTFwL4ahIsuT0YmRVe/BbEBUH
UYnkmH57WMA43AN+uhoOwhKwHpPx3H2PhX3Qf9bv5myQA9mFpaFDIK+xiXXU569j
sboNo6ReKaRc8L+ayH7D2mDUrq0TP8xLZHM9WT+LkX+M/uZLL+MEK+OuDW+LVbnp
G2c3JZ1D03C1AejZ3hGauMlburAMap+b/nnjqSeQHVaVhIvrlqFHgyg80OqBfv6i
kD2EAl68aAtwaTYYMlPjSuHFDdzWzT/AGico25YKzgEDDY6eOOEEhTit9x8QQLWx
1YW95mKxPPCsj4qIYkbMv2Sb57bAaD6WFFRsdgiNav0IS44LDsqEihdg+xLH8idJ
m7j/qT9wX5hRvpbxDb8dDsPHNF6zNef/Q+QOeoYI1hOmb0hK1vVhy7op5lSsycAy
Xv5ysuHE5Nnsah7yX8zbRDBCecrI0YYoOzpQ0HGBX6v78S9l346kfJZcRsP8sP09
sTjPhRWm2s6po7B2akuKTCXOwj38AREkHcf5AgMBAAGjfjB8MAwGA1UdEwEB/wQC
MAAwCwYDVR0PBAQDAgeAMB0GA1UdDgQWBBRGJ2A9I1eio/gQBjcIlMIhF1iT6TAf
BgNVHSMEGDAWgBRGJ2A9I1eio/gQBjcIlMIhF1iT6TAfBgNVHSUEGDAWBggrBgEF
BQcDAwYKKwYBBAGSCBABAjANBgkqhkiG9w0BAQ0FAAOCAgEAIaYpRUj8QjcSuHGv
Bp4qY5EZe1KlySpjZjaUPyus9wF+BEiSfDNmlMjAwx6k9BDSSmcaEGQV3XCGjE3v
qcIJvESbgwZ8zrMvCZ8yUd355oeWxz8I4Y/tTbA5ApzAhkAoVllcHRGvqK1J6JGg
MaLoxF6IxDHD1G8/WpTHbrgqdCeQEsYfNYcyMek4FNkJw0Lm5/ePRiKhyRIMNBp8
0Gvlx0JJP33Juzhl45MWG65IbClT7BqgdT8+5KcwWXnnjUt2Bo31S5cGCq8OC3s3
jJ2GPZJAzy2HylxmAZu9QplcSzmRDo/b0ytX/koXoBAX5DnxoSgbUVOcz5VOI1Xj
JCsu3O3LnBr7ZPYFvsRxcGKvUi1kn0vwh11dU41BLmqBKuL7VYl9cJPrWWGx93Vk
Dmz367nUgwggKZwDC1vVj95OveDZwsUBA52lOtsr8jKJZw7sMqR0vfv4DrTPzV5J
uwIt0Qw9L9ci5IlMajzlzm0haH50LjVeO5pEO6VUmjy+313i9t0cvfgFmYIvFk1u
9jeLdz+BLxCmTARnpFg0DV1v5CrEwr4A8Y6LhZh3SIpHIS7/zFVtjPLsPhR1pX0M
JEC2VEkwhBpishlgQjykP7z8IfYdGYPM+MsIKhVJyDWPvRTDIpLJW4SIUAHbEAhL
JAgAxGB2vuhi4gy9mig8cIac3ZQ=
-----END CERTIFICATE-----
